ccollections
defaultdict
p1
(c__builtin__
set
p2
tRp3
S'aquatic_mammals'
p4
(lp5
S'beaver'
p6
aS'dolphin'
p7
aS'otter'
p8
aS'seal'
p9
aS'whale'
p10
asS'large_carnivores'
p11
(lp12
S'bear'
p13
aS'leopard'
p14
aS'lion'
p15
aS'tiger'
p16
aS'wolf'
p17
asS'household_furniture'
p18
(lp19
S'bed'
p20
aS'chair'
p21
aS'couch'
p22
aS'table'
p23
aS'wardrobe'
p24
asS'large_man-made_outdoor_things'
p25
(lp26
S'bridge'
p27
aS'castle'
p28
aS'house'
p29
aS'road'
p30
aS'skyscraper'
p31
asS'people'
p32
(lp33
S'baby'
p34
aS'boy'
p35
aS'girl'
p36
aS'man'
p37
aS'woman'
p38
asS'insects'
p39
(lp40
S'bee'
p41
aS'beetle'
p42
aS'butterfly'
p43
aS'caterpillar'
p44
aS'cockroach'
p45
asS'large_omnivores_and_herbivores'
p46
(lp47
S'camel'
p48
aS'cattle'
p49
aS'chimpanzee'
p50
aS'elephant'
p51
aS'kangaroo'
p52
asS'fish'
p53
(lp54
S'aquarium_fish'
p55
aS'flatfish'
p56
aS'ray'
p57
aS'shark'
p58
aS'trout'
p59
asS'small_mammals'
p60
(lp61
S'hamster'
p62
aS'mouse'
p63
aS'rabbit'
p64
aS'shrew'
p65
aS'squirrel'
p66
asS'household_electrical_devices'
p67
(lp68
S'clock'
p69
aS'keyboard'
p70
aS'lamp'
p71
aS'telephone'
p72
aS'television'
p73
asS'trees'
p74
(lp75
S'maple_tree'
p76
aS'oak_tree'
p77
aS'palm_tree'
p78
aS'pine_tree'
p79
aS'willow_tree'
p80
asS'medium_mammals'
p81
(lp82
S'fox'
p83
aS'porcupine'
p84
aS'possum'
p85
aS'raccoon'
p86
aS'skunk'
p87
asS'large_natural_outdoor_scenes'
p88
(lp89
S'cloud'
p90
aS'forest'
p91
aS'mountain'
p92
aS'plain'
p93
aS'sea'
p94
asS'reptiles'
p95
(lp96
S'crocodile'
p97
aS'dinosaur'
p98
aS'lizard'
p99
aS'snake'
p100
aS'turtle'
p101
asS'non-insect_invertebrates'
p102
(lp103
S'crab'
p104
aS'lobster'
p105
aS'snail'
p106
aS'spider'
p107
aS'worm'
p108
asS'fruit_and_vegetables'
p109
(lp110
S'apple'
p111
aS'mushroom'
p112
aS'orange'
p113
aS'pear'
p114
aS'sweet_pepper'
p115
asS'food_containers'
p116
(lp117
S'bottle'
p118
aS'bowl'
p119
aS'can'
p120
aS'cup'
p121
aS'plate'
p122
asS'vehicles_1'
p123
(lp124
S'bicycle'
p125
aS'bus'
p126
aS'motorcycle'
p127
aS'pickup_truck'
p128
aS'train'
p129
asS'vehicles_2'
p130
(lp131
S'lawn_mower'
p132
aS'rocket'
p133
aS'streetcar'
p134
aS'tank'
p135
aS'tractor'
p136
asS'flowers'
p137
(lp138
S'orchid'
p139
aS'poppy'
p140
aS'rose'
p141
aS'sunflower'
p142
aS'tulip'
p143
as.